; Function Attrs: mustprogress uwtable
define void @_ZNK2cv4gapi3wip15QueueSourceBase8descr_ofEv(ptr dead_on_unwind noalias writable sret(%"class.cv::util::variant") align 8 %0, ptr nocapture noundef nonnull readonly align 8 dereferenceable(40) %1) unnamed_addr #3 align 2 {
  %3 = getelementptr inbounds i8, ptr %1, i64 24
  %4 = load ptr, ptr %3, align 8
  %5 = load i64, ptr %4, align 8
  store i64 %5, ptr %0, align 8
  %6 = getelementptr inbounds [6 x ptr], ptr @constinit.4, i64 0, i64 %5
  %7 = load ptr, ptr %6, align 8
  %8 = getelementptr inbounds i8, ptr %0, i64 8
  %9 = getelementptr inbounds i8, ptr %4, i64 8
  tail call void %7(ptr noundef nonnull %8, ptr noundef nonnull %9)
  ret void
}